target datalayout = "e-m:e-p270:32:32-p271:32:32-p272:64:64-i64:64-i128:128-f80:128-n8:16:32:64-S128"
target triple = "x86_64-pc-linux-gnu"

%struct._object = type { %union.anon, ptr }
%union.anon = type { i64 }
%struct.anon = type { i32, i32 }

@_Py_NoneStruct = external global %struct._object, align 8
@.str.54 = private unnamed_addr constant [19 x i8] c"_interpreters.exec\00", align 1
@.str.55 = private unnamed_addr constant [11 x i8] c"argument 2\00", align 1
@interp_run_func.kwlist = internal global [5 x ptr] [ptr @.str.33, ptr @.str.61, ptr @.str.50, ptr @.str.34, ptr null], align 16
@.str.82 = private unnamed_addr constant [30 x i8] c"OO|O$p:_interpreters.run_func\00", align 1
@.str.83 = private unnamed_addr constant [18 x i8] c"run a function in\00", align 1
@.str.84 = private unnamed_addr constant [28 x i8] c"a function or a code object\00", align 1

; Function Attrs: alwaysinline nounwind uwtable
define internal i32 @_Py_IsImmortal(ptr noundef %0) #4 {
  %2 = alloca ptr, align 8
  store ptr %0, ptr %2, align 8, !tbaa !3
  %3 = load ptr, ptr %2, align 8, !tbaa !3
  %4 = getelementptr inbounds nuw %struct._object, ptr %3, i32 0, i32 0
  %5 = getelementptr inbounds nuw %struct.anon, ptr %4, i32 0, i32 0
  %6 = load i32, ptr %5, align 8, !tbaa !38
  %7 = icmp slt i32 %6, 0
  %8 = zext i1 %7 to i32
  ret i32 %8
}

; Function Attrs: alwaysinline nounwind uwtable
define internal void @Py_DECREF(ptr noundef %0) #4 {
  %2 = alloca ptr, align 8
  store ptr %0, ptr %2, align 8, !tbaa !3
  %3 = load ptr, ptr %2, align 8, !tbaa !3
  %4 = call i32 @_Py_IsImmortal(ptr noundef %3)
  %5 = icmp ne i32 %4, 0
  br i1 %5, label %6, label %7

6:                                                ; preds = %1
  br label %16

7:                                                ; preds = %1
  %8 = load ptr, ptr %2, align 8, !tbaa !3
  %9 = getelementptr inbounds nuw %struct._object, ptr %8, i32 0, i32 0
  %10 = getelementptr inbounds nuw %struct.anon, ptr %9, i32 0, i32 0
  %11 = load i32, ptr %10, align 8, !tbaa !38
  %12 = add i32 %11, -1
  store i32 %12, ptr %10, align 8, !tbaa !38
  %13 = icmp eq i32 %12, 0
  br i1 %13, label %14, label %16

14:                                               ; preds = %7
  %15 = load ptr, ptr %2, align 8, !tbaa !3
  call void @_Py_Dealloc(ptr noundef %15)
  br label %16

16:                                               ; preds = %6, %14, %7
  ret void
}

; Function Attrs: nounwind uwtable
define internal ptr @interp_run_func(ptr noundef %0, ptr noundef %1, ptr noundef %2) #0 {
  %4 = alloca ptr, align 8
  %5 = alloca ptr, align 8
  %6 = alloca ptr, align 8
  %7 = alloca ptr, align 8
  %8 = alloca ptr, align 8
  %9 = alloca ptr, align 8
  %10 = alloca ptr, align 8
  %11 = alloca i32, align 4
  %12 = alloca i32, align 4
  %13 = alloca i32, align 4
  %14 = alloca ptr, align 8
  %15 = alloca ptr, align 8
  %16 = alloca ptr, align 8
  %17 = alloca i32, align 4
  store ptr %0, ptr %5, align 8, !tbaa !3
  store ptr %1, ptr %6, align 8, !tbaa !3
  store ptr %2, ptr %7, align 8, !tbaa !3
  call void @llvm.lifetime.start.p0(i64 8, ptr %8) #8
  call void @llvm.lifetime.start.p0(i64 8, ptr %9) #8
  call void @llvm.lifetime.start.p0(i64 8, ptr %10) #8
  store ptr null, ptr %10, align 8, !tbaa !3
  call void @llvm.lifetime.start.p0(i64 4, ptr %11) #8
  store i32 0, ptr %11, align 4, !tbaa !11
  %18 = load ptr, ptr %6, align 8, !tbaa !3
  %19 = load ptr, ptr %7, align 8, !tbaa !3
  %20 = call i32 (ptr, ptr, ptr, ptr, ...) @PyArg_ParseTupleAndKeywords(ptr noundef %18, ptr noundef %19, ptr noundef @.str.82, ptr noundef @interp_run_func.kwlist, ptr noundef %8, ptr noundef %9, ptr noundef %10, ptr noundef %11)
  %21 = icmp ne i32 %20, 0
  br i1 %21, label %23, label %22

22:                                               ; preds = %3
  store ptr null, ptr %4, align 8
  store i32 1, ptr %12, align 4
  br label %52

23:                                               ; preds = %3
  call void @llvm.lifetime.start.p0(i64 4, ptr %13) #8
  store i32 1, ptr %13, align 4, !tbaa !11
  call void @llvm.lifetime.start.p0(i64 8, ptr %14) #8
  %24 = load ptr, ptr %8, align 8, !tbaa !3
  %25 = load i32, ptr %11, align 4, !tbaa !11
  %26 = load i32, ptr %13, align 4, !tbaa !11
  %27 = call ptr @resolve_interp(ptr noundef %24, i32 noundef %25, i32 noundef %26, ptr noundef @.str.83)
  store ptr %27, ptr %14, align 8, !tbaa !15
  %28 = load ptr, ptr %14, align 8, !tbaa !15
  %29 = icmp eq ptr %28, null
  br i1 %29, label %30, label %31

30:                                               ; preds = %23
  store ptr null, ptr %4, align 8
  store i32 1, ptr %12, align 4
  br label %51

31:                                               ; preds = %23
  call void @llvm.lifetime.start.p0(i64 8, ptr %15) #8
  %32 = load ptr, ptr %9, align 8, !tbaa !3
  %33 = call ptr @convert_code_arg(ptr noundef %32, ptr noundef @.str.54, ptr noundef @.str.55, ptr noundef @.str.84)
  store ptr %33, ptr %15, align 8, !tbaa !19
  %34 = load ptr, ptr %15, align 8, !tbaa !19
  %35 = icmp eq ptr %34, null
  br i1 %35, label %36, label %37

36:                                               ; preds = %31
  store ptr null, ptr %4, align 8
  store i32 1, ptr %12, align 4
  br label %50

37:                                               ; preds = %31
  call void @llvm.lifetime.start.p0(i64 8, ptr %16) #8
  store ptr null, ptr %16, align 8, !tbaa !3
  call void @llvm.lifetime.start.p0(i64 4, ptr %17) #8
  %38 = load ptr, ptr %5, align 8, !tbaa !3
  %39 = load ptr, ptr %14, align 8, !tbaa !15
  %40 = load ptr, ptr %15, align 8, !tbaa !19
  %41 = load ptr, ptr %10, align 8, !tbaa !3
  %42 = call i32 @_interp_exec(ptr noundef %38, ptr noundef %39, ptr noundef %40, ptr noundef %41, ptr noundef %16)
  store i32 %42, ptr %17, align 4, !tbaa !11
  %43 = load ptr, ptr %15, align 8, !tbaa !19
  call void @Py_DECREF(ptr noundef %43)
  %44 = load i32, ptr %17, align 4, !tbaa !11
  %45 = icmp slt i32 %44, 0
  br i1 %45, label %46, label %48

46:                                               ; preds = %37
  %47 = load ptr, ptr %16, align 8, !tbaa !3
  store ptr %47, ptr %4, align 8
  store i32 1, ptr %12, align 4
  br label %49

48:                                               ; preds = %37
  store ptr @_Py_NoneStruct, ptr %4, align 8
  store i32 1, ptr %12, align 4
  br label %49

49:                                               ; preds = %48, %46
  call void @llvm.lifetime.end.p0(i64 4, ptr %17) #8
  call void @llvm.lifetime.end.p0(i64 8, ptr %16) #8
  br label %50

50:                                               ; preds = %49, %36
  call void @llvm.lifetime.end.p0(i64 8, ptr %15) #8
  br label %51

51:                                               ; preds = %50, %30
  call void @llvm.lifetime.end.p0(i64 8, ptr %14) #8
  call void @llvm.lifetime.end.p0(i64 4, ptr %13) #8
  br label %52

52:                                               ; preds = %51, %22
  call void @llvm.lifetime.end.p0(i64 4, ptr %11) #8
  call void @llvm.lifetime.end.p0(i64 8, ptr %10) #8
  call void @llvm.lifetime.end.p0(i64 8, ptr %9) #8
  call void @llvm.lifetime.end.p0(i64 8, ptr %8) #8
  %53 = load ptr, ptr %4, align 8
  ret ptr %53
}