; Function Attrs: nounwind uwtable
define internal ptr @interp_run_func(ptr readnone captures(none) %0, ptr noundef %1, ptr noundef %2) #0 {
  %4 = alloca ptr, align 8
  %5 = alloca ptr, align 8
  %6 = alloca ptr, align 8
  %7 = alloca i32, align 4
  %8 = alloca ptr, align 8
  call void @llvm.lifetime.start.p0(i64 8, ptr nonnull %4) #7
  call void @llvm.lifetime.start.p0(i64 8, ptr nonnull %5) #7
  call void @llvm.lifetime.start.p0(i64 8, ptr nonnull %6) #7
  store ptr null, ptr %6, align 8, !tbaa !15
  call void @llvm.lifetime.start.p0(i64 4, ptr nonnull %7) #7
  store i32 0, ptr %7, align 4, !tbaa !14
  %9 = call i32 (ptr, ptr, ptr, ptr, ...) @PyArg_ParseTupleAndKeywords(ptr noundef %1, ptr noundef %2, ptr noundef nonnull @.str.82, ptr noundef nonnull @interp_run_func.kwlist, ptr noundef nonnull %4, ptr noundef nonnull %5, ptr noundef nonnull %6, ptr noundef nonnull %7) #7
  %.not = icmp eq i32 %9, 0
  br i1 %.not, label %29, label %10

10:                                               ; preds = %3
  %11 = load ptr, ptr %4, align 8, !tbaa !15
  %12 = load i32, ptr %7, align 4, !tbaa !14
  %13 = call fastcc ptr @resolve_interp(ptr noundef %11, i32 noundef %12, i32 noundef 1, ptr noundef nonnull @.str.83)
  %14 = icmp eq ptr %13, null
  br i1 %14, label %29, label %15

15:                                               ; preds = %10
  %16 = load ptr, ptr %5, align 8, !tbaa !15
  %17 = call fastcc ptr @convert_code_arg(ptr noundef %16, ptr noundef nonnull @.str.54, ptr noundef nonnull @.str.84)
  %18 = icmp eq ptr %17, null
  br i1 %18, label %29, label %19

19:                                               ; preds = %15
  call void @llvm.lifetime.start.p0(i64 8, ptr nonnull %8) #7
  store ptr null, ptr %8, align 8, !tbaa !15
  %20 = load ptr, ptr %6, align 8, !tbaa !15
  %21 = call fastcc i32 @_interp_exec(ptr noundef %13, ptr noundef nonnull %17, ptr noundef %20, ptr noundef %8)
  %22 = load i32, ptr %17, align 8, !tbaa !11
  %.not.i = icmp sgt i32 %22, -1
  br i1 %.not.i, label %23, label %Py_DECREF.exit

23:                                               ; preds = %19
  %24 = add nsw i32 %22, -1
  store i32 %24, ptr %17, align 8, !tbaa !11
  %25 = icmp eq i32 %24, 0
  br i1 %25, label %26, label %Py_DECREF.exit

26:                                               ; preds = %23
  call void @_Py_Dealloc(ptr noundef nonnull %17) #7
  br label %Py_DECREF.exit

Py_DECREF.exit:                                   ; preds = %19, %23, %26
  %27 = icmp slt i32 %21, 0
  %28 = load ptr, ptr %8, align 8
  %.3 = select i1 %27, ptr %28, ptr @_Py_NoneStruct
  call void @llvm.lifetime.end.p0(i64 8, ptr nonnull %8) #7
  br label %29

29:                                               ; preds = %10, %15, %Py_DECREF.exit, %3
  %.0 = phi ptr [ null, %3 ], [ null, %10 ], [ %.3, %Py_DECREF.exit ], [ null, %15 ]
  call void @llvm.lifetime.end.p0(i64 4, ptr nonnull %7) #7
  call void @llvm.lifetime.end.p0(i64 8, ptr nonnull %6) #7
  call void @llvm.lifetime.end.p0(i64 8, ptr nonnull %5) #7
  call void @llvm.lifetime.end.p0(i64 8, ptr nonnull %4) #7
  ret ptr %.0
}